; Function Attrs: mustprogress nounwind uwtable
define internal void @"_ZN4node13CallbackQueueIvJPNS_11EnvironmentEEE12CallbackImplIZZNS_6reportL15WriteNodeReportEPN2v87IsolateES2_PKcSA_RKNSt7__cxx1112basic_stringIcSt11char_traitsIcESaIcEEERSoNS6_5LocalINS6_5ValueEEEbENK3$_0clEPNS_6worker6WorkerEEUlS2_E_ED0Ev"(ptr noundef nonnull align 8 dereferenceable(56) %this) unnamed_addr #3 align 2 {
entry:
  store ptr getelementptr inbounds ({ [5 x ptr] }, ptr @_ZTVN4node13CallbackQueueIvJPNS_11EnvironmentEEE8CallbackE, i64 0, i32 0, i64 2), ptr %this, align 8
  %next_.i.i = getelementptr inbounds i8, ptr %this, i64 16
  %0 = load ptr, ptr %next_.i.i, align 8
  %cmp.not.i.i.i = icmp eq ptr %0, null
  br i1 %cmp.not.i.i.i, label %"_ZN4node13CallbackQueueIvJPNS_11EnvironmentEEE12CallbackImplIZZNS_6reportL15WriteNodeReportEPN2v87IsolateES2_PKcSA_RKNSt7__cxx1112basic_stringIcSt11char_traitsIcESaIcEEERSoNS6_5LocalINS6_5ValueEEEbENK3$_0clEPNS_6worker6WorkerEEUlS2_E_ED2Ev.exit", label %_ZNKSt14default_deleteIN4node13CallbackQueueIvJPNS0_11EnvironmentEEE8CallbackEEclEPS5_.exit.i.i.i

_ZNKSt14default_deleteIN4node13CallbackQueueIvJPNS0_11EnvironmentEEE8CallbackEEclEPS5_.exit.i.i.i: ; preds = %entry
  %vtable.i.i.i.i = load ptr, ptr %0, align 8
  %vfn.i.i.i.i = getelementptr inbounds i8, ptr %vtable.i.i.i.i, i64 8
  %1 = load ptr, ptr %vfn.i.i.i.i, align 8
  tail call void %1(ptr noundef nonnull align 8 dereferenceable(24) %0) #24
  br label %"_ZN4node13CallbackQueueIvJPNS_11EnvironmentEEE12CallbackImplIZZNS_6reportL15WriteNodeReportEPN2v87IsolateES2_PKcSA_RKNSt7__cxx1112basic_stringIcSt11char_traitsIcESaIcEEERSoNS6_5LocalINS6_5ValueEEEbENK3$_0clEPNS_6worker6WorkerEEUlS2_E_ED2Ev.exit"

"_ZN4node13CallbackQueueIvJPNS_11EnvironmentEEE12CallbackImplIZZNS_6reportL15WriteNodeReportEPN2v87IsolateES2_PKcSA_RKNSt7__cxx1112basic_stringIcSt11char_traitsIcESaIcEEERSoNS6_5LocalINS6_5ValueEEEbENK3$_0clEPNS_6worker6WorkerEEUlS2_E_ED2Ev.exit": ; preds = %entry, %_ZNKSt14default_deleteIN4node13CallbackQueueIvJPNS0_11EnvironmentEEE8CallbackEEclEPS5_.exit.i.i.i
  tail call void @_ZdlPv(ptr noundef nonnull %this) #30
  ret void
}